target datalayout = "e-m:e-p270:32:32-p271:32:32-p272:64:64-i64:64-i128:128-f80:128-n8:16:32:64-S128"
target triple = "x86_64-pc-linux-gnu"

%"struct.osgeo::proj::ExtentAndRes" = type { i8, double, double, double, double, double, double, double, double }

; Function Attrs: mustprogress nounwind uwtable
define hidden noundef zeroext i1 @_ZNK5osgeo4proj12ExtentAndRes18fullWorldLongitudeEv(ptr noundef nonnull align 8 dereferenceable(72) %0) #0 align 2 {
  %2 = alloca ptr, align 8
  store ptr %0, ptr %2, align 8, !tbaa !3
  %3 = load ptr, ptr %2, align 8
  %4 = getelementptr inbounds nuw %"struct.osgeo::proj::ExtentAndRes", ptr %3, i32 0, i32 0
  %5 = load i8, ptr %4, align 8, !tbaa !15, !range !16, !noundef !17
  %6 = trunc i8 %5 to i1
  br i1 %6, label %7, label %17

7:                                                ; preds = %1
  %8 = getelementptr inbounds nuw %"struct.osgeo::proj::ExtentAndRes", ptr %3, i32 0, i32 3
  %9 = load double, ptr %8, align 8, !tbaa !18
  %10 = getelementptr inbounds nuw %"struct.osgeo::proj::ExtentAndRes", ptr %3, i32 0, i32 1
  %11 = load double, ptr %10, align 8, !tbaa !19
  %12 = fsub double %9, %11
  %13 = getelementptr inbounds nuw %"struct.osgeo::proj::ExtentAndRes", ptr %3, i32 0, i32 5
  %14 = load double, ptr %13, align 8, !tbaa !8
  %15 = fadd double %12, %14
  %16 = fcmp oge double %15, 0x401921FB5442754A
  br label %17

17:                                               ; preds = %7, %1
  %18 = phi i1 [ false, %1 ], [ %16, %7 ]
  ret i1 %18
}