; Function Attrs: mustprogress nofree norecurse nosync nounwind willreturn memory(argmem: read) uwtable
define hidden noundef zeroext i1 @_ZNK5osgeo4proj12ExtentAndRes18fullWorldLongitudeEv(ptr noundef nonnull readonly align 8 captures(none) dereferenceable(72) %0) local_unnamed_addr #1 align 2 {
  %2 = load i8, ptr %0, align 8, !tbaa !12, !range !13, !noundef !14
  %3 = trunc nuw i8 %2 to i1
  br i1 %3, label %4, label %14

4:                                                ; preds = %1
  %5 = getelementptr inbounds nuw i8, ptr %0, i64 24
  %6 = load double, ptr %5, align 8, !tbaa !15
  %7 = getelementptr inbounds nuw i8, ptr %0, i64 8
  %8 = load double, ptr %7, align 8, !tbaa !16
  %9 = fsub double %6, %8
  %10 = getelementptr inbounds nuw i8, ptr %0, i64 40
  %11 = load double, ptr %10, align 8, !tbaa !3
  %12 = fadd double %9, %11
  %13 = fcmp oge double %12, 0x401921FB5442754A
  br label %14

14:                                               ; preds = %4, %1
  %15 = phi i1 [ false, %1 ], [ %13, %4 ]
  ret i1 %15
}